; Function Attrs: null_pointer_is_valid sspstrong uwtable
define internal noundef zeroext i1 @dissect_ocp1_heur_tcp(ptr noundef %0, ptr noundef %1, ptr noundef %2, ptr noundef %3) #0 {
  %5 = tail call fastcc zeroext i1 @test_ocp1(ptr noundef %0)
  br i1 %5, label %6, label %dissect_ocp1_tcp.exit

6:                                                ; preds = %4
  %7 = tail call zeroext i1 @tvb_bytes_exist(ptr noundef %0, i32 noundef 0, i32 noundef 10)
  br i1 %7, label %8, label %dissect_ocp1_tcp.exit

8:                                                ; preds = %6
  tail call void @tcp_dissect_pdus(ptr noundef %0, ptr noundef %1, ptr noundef %2, i1 noundef zeroext true, i32 noundef 10, ptr noundef nonnull @get_ocp1_message_len, ptr noundef nonnull @dissect_ocp1, ptr noundef %3)
  %9 = tail call i32 @tvb_reported_length(ptr noundef %0)
  br label %dissect_ocp1_tcp.exit

dissect_ocp1_tcp.exit:                            ; preds = %8, %6, %4
  ret i1 %5
}